target datalayout = "e-m:e-p270:32:32-p271:32:32-p272:64:64-i64:64-i128:128-f80:128-n8:16:32:64-S128"
target triple = "x86_64-pc-linux-gnu"

%struct.loadCtx = type { ptr, i64, i64 }

@.str.10 = private unnamed_addr constant [16 x i8] c"__LIBRARY_CTX__\00", align 1
@.str.32 = private unnamed_addr constant [15 x i8] c"function_lua.c\00", align 1
@getMonotonicUs = external global ptr, align 8
@.str.34 = private unnamed_addr constant [9 x i8] c"load_ctx\00", align 1
@.str.35 = private unnamed_addr constant [22 x i8] c"FUNCTION LOAD timeout\00", align 1

; Function Attrs: inlinehint nounwind uwtable
define internal i64 @elapsedUs(i64 noundef %0) #7 {
  %2 = alloca i64, align 8
  store i64 %0, ptr %2, align 8, !tbaa !42
  %3 = load ptr, ptr @getMonotonicUs, align 8, !tbaa !27
  %4 = call i64 %3()
  %5 = load i64, ptr %2, align 8, !tbaa !42
  %6 = sub i64 %4, %5
  ret i64 %6
}

; Function Attrs: inlinehint nounwind uwtable
define internal i64 @elapsedMs(i64 noundef %0) #7 {
  %2 = alloca i64, align 8
  store i64 %0, ptr %2, align 8, !tbaa !42
  %3 = load i64, ptr %2, align 8, !tbaa !42
  %4 = call i64 @elapsedUs(i64 noundef %3)
  %5 = udiv i64 %4, 1000
  ret i64 %5
}

; Function Attrs: nounwind uwtable
define internal void @luaEngineLoadHook(ptr noundef %0, ptr noundef %1) #0 {
  %3 = alloca ptr, align 8
  %4 = alloca ptr, align 8
  %5 = alloca ptr, align 8
  %6 = alloca i64, align 8
  store ptr %0, ptr %3, align 8, !tbaa !28
  store ptr %1, ptr %4, align 8, !tbaa !89
  call void @llvm.lifetime.start.p0(i64 8, ptr %5) #11
  %7 = load ptr, ptr %3, align 8, !tbaa !28
  %8 = call ptr @luaGetFromRegistry(ptr noundef %7, ptr noundef @.str.10)
  store ptr %8, ptr %5, align 8, !tbaa !29
  %9 = load ptr, ptr %5, align 8, !tbaa !29
  %10 = icmp ne ptr %9, null
  %11 = xor i1 %10, true
  %12 = xor i1 %11, true
  %13 = zext i1 %12 to i32
  %14 = sext i32 %13 to i64
  %15 = call i64 @llvm.expect.i64(i64 %14, i64 1)
  %16 = icmp ne i64 %15, 0
  br i1 %16, label %17, label %18

17:                                               ; preds = %2
  br label %20

18:                                               ; preds = %2
  call void @_serverAssert(ptr noundef @.str.34, ptr noundef @.str.32, i32 noundef 70)
  call void @abort() #14
  unreachable

19:                                               ; No predecessors!
  br label %20

20:                                               ; preds = %19, %17
  call void @llvm.lifetime.start.p0(i64 8, ptr %6) #11
  %21 = load ptr, ptr %5, align 8, !tbaa !29
  %22 = getelementptr inbounds nuw %struct.loadCtx, ptr %21, i32 0, i32 1
  %23 = load i64, ptr %22, align 8, !tbaa !47
  %24 = call i64 @elapsedMs(i64 noundef %23)
  store i64 %24, ptr %6, align 8, !tbaa !42
  %25 = load ptr, ptr %5, align 8, !tbaa !29
  %26 = getelementptr inbounds nuw %struct.loadCtx, ptr %25, i32 0, i32 2
  %27 = load i64, ptr %26, align 8, !tbaa !48
  %28 = icmp ugt i64 %27, 0
  br i1 %28, label %29, label %41

29:                                               ; preds = %20
  %30 = load i64, ptr %6, align 8, !tbaa !42
  %31 = load ptr, ptr %5, align 8, !tbaa !29
  %32 = getelementptr inbounds nuw %struct.loadCtx, ptr %31, i32 0, i32 2
  %33 = load i64, ptr %32, align 8, !tbaa !48
  %34 = icmp ugt i64 %30, %33
  br i1 %34, label %35, label %41

35:                                               ; preds = %29
  %36 = load ptr, ptr %3, align 8, !tbaa !28
  %37 = call i32 @lua_sethook(ptr noundef %36, ptr noundef @luaEngineLoadHook, i32 noundef 4, i32 noundef 0)
  %38 = load ptr, ptr %3, align 8, !tbaa !28
  call void @luaPushError(ptr noundef %38, ptr noundef @.str.35)
  %39 = load ptr, ptr %3, align 8, !tbaa !28
  %40 = call i32 @luaError(ptr noundef %39)
  br label %41

41:                                               ; preds = %35, %29, %20
  call void @llvm.lifetime.end.p0(i64 8, ptr %6) #11
  call void @llvm.lifetime.end.p0(i64 8, ptr %5) #11
  ret void
}