; Function Attrs: nounwind uwtable
define internal void @luaEngineLoadHook(ptr noundef %0, ptr readnone captures(none) %1) #0 {
  %3 = tail call ptr @luaGetFromRegistry(ptr noundef %0, ptr noundef nonnull @.str.10) #9
  %.not = icmp eq ptr %3, null
  br i1 %.not, label %4, label %5, !prof !51

4:                                                ; preds = %2
  tail call void @_serverAssert(ptr noundef nonnull @.str.34, ptr noundef nonnull @.str.32, i32 noundef 70) #9
  tail call void @abort() #11
  unreachable

5:                                                ; preds = %2
  %6 = getelementptr inbounds nuw i8, ptr %3, i64 8
  %7 = load i64, ptr %6, align 8, !tbaa !32
  %8 = load ptr, ptr @getMonotonicUs, align 8, !tbaa !11
  %9 = tail call i64 %8() #9
  %10 = sub i64 %9, %7
  %11 = udiv i64 %10, 1000
  %12 = getelementptr inbounds nuw i8, ptr %3, i64 16
  %13 = load i64, ptr %12, align 8, !tbaa !33
  %.not9 = icmp ne i64 %13, 0
  %14 = icmp ugt i64 %11, %13
  %or.cond = select i1 %.not9, i1 %14, i1 false
  br i1 %or.cond, label %15, label %18

15:                                               ; preds = %5
  %16 = tail call i32 @lua_sethook(ptr noundef %0, ptr noundef nonnull @luaEngineLoadHook, i32 noundef 4, i32 noundef 0) #9
  tail call void @luaPushError(ptr noundef %0, ptr noundef nonnull @.str.35) #9
  %17 = tail call i32 @luaError(ptr noundef %0) #9
  br label %18

18:                                               ; preds = %15, %5
  ret void
}